target datalayout = "e-m:e-p270:32:32-p271:32:32-p272:64:64-i64:64-i128:128-f80:128-n8:16:32:64-S128"
target triple = "x86_64-pc-linux-gnu"

%"class.cv::Mat" = type { i32, i32, i32, i32, ptr, ptr, ptr, ptr, ptr, ptr, %"struct.cv::MatSize", %"struct.cv::MatStep" }
%"struct.cv::MatSize" = type { ptr }
%"struct.cv::MatStep" = type { ptr, [2 x i64] }
%"class.cv::ccm::Polyfit" = type { ptr, i32, %"class.cv::Mat" }

; Function Attrs: inlinehint mustprogress nounwind uwtable
define linkonce_odr hidden noundef nonnull align 8 dereferenceable(8) ptr @_ZN2cv3Mat2atIdEERT_ii(ptr noundef nonnull align 8 dereferenceable(96) %0, i32 noundef %1, i32 noundef %2) #3 comdat align 2 {
  %4 = alloca ptr, align 8
  %5 = alloca i32, align 4
  %6 = alloca i32, align 4
  store ptr %0, ptr %4, align 8, !tbaa !8
  store i32 %1, ptr %5, align 4, !tbaa !10
  store i32 %2, ptr %6, align 4, !tbaa !10
  %7 = load ptr, ptr %4, align 8
  %8 = getelementptr inbounds nuw %"class.cv::Mat", ptr %7, i32 0, i32 4
  %9 = load ptr, ptr %8, align 8, !tbaa !37
  %10 = getelementptr inbounds nuw %"class.cv::Mat", ptr %7, i32 0, i32 11
  %11 = getelementptr inbounds nuw %"struct.cv::MatStep", ptr %10, i32 0, i32 0
  %12 = load ptr, ptr %11, align 8, !tbaa !38
  %13 = getelementptr inbounds i64, ptr %12, i64 0
  %14 = load i64, ptr %13, align 8, !tbaa !39
  %15 = load i32, ptr %5, align 4, !tbaa !10
  %16 = sext i32 %15 to i64
  %17 = mul i64 %14, %16
  %18 = getelementptr inbounds nuw i8, ptr %9, i64 %17
  %19 = load i32, ptr %6, align 4, !tbaa !10
  %20 = sext i32 %19 to i64
  %21 = getelementptr inbounds double, ptr %18, i64 %20
  ret ptr %21
}

; Function Attrs: inlinehint mustprogress nounwind uwtable
define linkonce_odr noundef double @_ZSt3powIdiEN9__gnu_cxx11__promote_2IT_T0_NS0_9__promoteIS2_Xsr3std12__is_integerIS2_EE7__valueEE6__typeENS4_IS3_Xsr3std12__is_integerIS3_EE7__valueEE6__typeEE6__typeES2_S3_(double noundef %0, i32 noundef %1) #3 comdat {
  %3 = alloca double, align 8
  %4 = alloca i32, align 4
  store double %0, ptr %3, align 8, !tbaa !26
  store i32 %1, ptr %4, align 4, !tbaa !10
  %5 = load double, ptr %3, align 8, !tbaa !26
  %6 = load i32, ptr %4, align 4, !tbaa !10
  %7 = sitofp i32 %6 to double
  %8 = call double @pow(double noundef %5, double noundef %7) #19, !tbaa !10
  ret double %8
}

; Function Attrs: mustprogress uwtable
define hidden noundef double @_ZN2cv3ccm7Polyfit6fromEWEd(ptr noundef nonnull align 8 dereferenceable(112) %0, double noundef %1) #0 align 2 {
  %3 = alloca ptr, align 8
  %4 = alloca double, align 8
  %5 = alloca double, align 8
  %6 = alloca i32, align 4
  store ptr %0, ptr %3, align 8, !tbaa !3
  store double %1, ptr %4, align 8, !tbaa !26
  %7 = load ptr, ptr %3, align 8
  call void @llvm.lifetime.start.p0(i64 8, ptr %5) #19
  store double 0.000000e+00, ptr %5, align 8, !tbaa !26
  call void @llvm.lifetime.start.p0(i64 4, ptr %6) #19
  store i32 0, ptr %6, align 4, !tbaa !10
  br label %8

8:                                                ; preds = %24, %2
  %9 = load i32, ptr %6, align 4, !tbaa !10
  %10 = getelementptr inbounds nuw %"class.cv::ccm::Polyfit", ptr %7, i32 0, i32 1
  %11 = load i32, ptr %10, align 8, !tbaa !14
  %12 = icmp sle i32 %9, %11
  br i1 %12, label %14, label %13

13:                                               ; preds = %8
  call void @llvm.lifetime.end.p0(i64 4, ptr %6) #19
  br label %27

14:                                               ; preds = %8
  %15 = load double, ptr %4, align 8, !tbaa !26
  %16 = load i32, ptr %6, align 4, !tbaa !10
  %17 = call noundef double @_ZSt3powIdiEN9__gnu_cxx11__promote_2IT_T0_NS0_9__promoteIS2_Xsr3std12__is_integerIS2_EE7__valueEE6__typeENS4_IS3_Xsr3std12__is_integerIS3_EE7__valueEE6__typeEE6__typeES2_S3_(double noundef %15, i32 noundef %16)
  %18 = getelementptr inbounds nuw %"class.cv::ccm::Polyfit", ptr %7, i32 0, i32 2
  %19 = load i32, ptr %6, align 4, !tbaa !10
  %20 = call noundef nonnull align 8 dereferenceable(8) ptr @_ZN2cv3Mat2atIdEERT_ii(ptr noundef nonnull align 8 dereferenceable(96) %18, i32 noundef %19, i32 noundef 0)
  %21 = load double, ptr %20, align 8, !tbaa !26
  %22 = load double, ptr %5, align 8, !tbaa !26
  %23 = call double @llvm.fmuladd.f64(double %17, double %21, double %22)
  store double %23, ptr %5, align 8, !tbaa !26
  br label %24

24:                                               ; preds = %14
  %25 = load i32, ptr %6, align 4, !tbaa !10
  %26 = add nsw i32 %25, 1
  store i32 %26, ptr %6, align 4, !tbaa !10
  br label %8, !llvm.loop !57

27:                                               ; preds = %13
  %28 = load double, ptr %5, align 8, !tbaa !26
  call void @llvm.lifetime.end.p0(i64 8, ptr %5) #19
  ret double %28
}