; Function Attrs: mustprogress nofree nounwind memory(readwrite, inaccessiblemem: write) uwtable
define hidden noundef double @_ZN2cv3ccm7Polyfit6fromEWEd(ptr noundef nonnull readonly align 8 captures(none) dereferenceable(112) %0, double noundef %1) local_unnamed_addr #5 align 2 {
  %3 = getelementptr inbounds nuw i8, ptr %0, i64 8
  %4 = load i32, ptr %3, align 8, !tbaa !6
  %.not8 = icmp slt i32 %4, 0
  br i1 %.not8, label %._crit_edge, label %.lr.ph

.lr.ph:                                           ; preds = %2
  %5 = getelementptr inbounds nuw i8, ptr %0, i64 32
  %6 = load ptr, ptr %5, align 8, !tbaa !36
  %7 = getelementptr inbounds nuw i8, ptr %0, i64 88
  %8 = load ptr, ptr %7, align 8, !tbaa !41
  %9 = load i64, ptr %8, align 8, !tbaa !32
  br label %10

._crit_edge:                                      ; preds = %10, %2
  %.07.lcssa = phi double [ 0.000000e+00, %2 ], [ %17, %10 ]
  ret double %.07.lcssa

10:                                               ; preds = %.lr.ph, %10
  %indvars.iv = phi i64 [ 0, %.lr.ph ], [ %indvars.iv.next, %10 ]
  %.079 = phi double [ 0.000000e+00, %.lr.ph ], [ %17, %10 ]
  %11 = trunc nuw nsw i64 %indvars.iv to i32
  %12 = uitofp nneg i32 %11 to double
  %13 = tail call noundef double @pow(double noundef %1, double noundef %12) #22, !tbaa !35
  %14 = mul i64 %9, %indvars.iv
  %15 = getelementptr inbounds nuw i8, ptr %6, i64 %14
  %16 = load double, ptr %15, align 8, !tbaa !37
  %17 = tail call double @llvm.fmuladd.f64(double %13, double %16, double %.079)
  %indvars.iv.next = add nuw nsw i64 %indvars.iv, 1
  %18 = load i32, ptr %3, align 8, !tbaa !6
  %19 = sext i32 %18 to i64
  %.not.not = icmp slt i64 %indvars.iv, %19
  br i1 %.not.not, label %10, label %._crit_edge, !llvm.loop !82
}